target datalayout = "e-m:e-p270:32:32-p271:32:32-p272:64:64-i64:64-i128:128-f80:128-n8:16:32:64-S128"
target triple = "x86_64-pc-linux-gnu"

%struct.x509_st = type { %struct.x509_cinf_st, %struct.X509_algor_st, %struct.asn1_string_st, %struct.x509_sig_info_st, %struct.CRYPTO_REF_COUNT, %struct.crypto_ex_data_st, i64, i64, i32, i32, i32, i32, ptr, ptr, ptr, ptr, ptr, ptr, ptr, ptr, [20 x i8], ptr, ptr, i32, ptr, ptr, ptr }
%struct.x509_cinf_st = type { ptr, %struct.asn1_string_st, %struct.X509_algor_st, ptr, %struct.X509_val_st, ptr, ptr, ptr, ptr, ptr, %struct.ASN1_ENCODING_st }
%struct.X509_val_st = type { ptr, ptr }
%struct.ASN1_ENCODING_st = type { ptr, i64, i32 }
%struct.X509_algor_st = type { ptr, ptr }
%struct.asn1_string_st = type { i32, i32, ptr, i64 }
%struct.x509_sig_info_st = type { i32, i32, i32, i32 }
%struct.CRYPTO_REF_COUNT = type { i32 }
%struct.crypto_ex_data_st = type { ptr, ptr }

@.str.14 = private unnamed_addr constant [28 x i8] c"../openssl/test/x509_test.c\00", align 1
@.str.24 = private unnamed_addr constant [2 x i8] c"0\00", align 1
@.str.30 = private unnamed_addr constant [32 x i8] c"certfile = test_get_argument(0)\00", align 1
@.str.31 = private unnamed_addr constant [34 x i8] c"bio = BIO_new_file(certfile, \22r\22)\00", align 1
@.str.32 = private unnamed_addr constant [2 x i8] c"r\00", align 1
@.str.33 = private unnamed_addr constant [48 x i8] c"x509 = PEM_read_bio_X509(bio, NULL, NULL, NULL)\00", align 1
@.str.34 = private unnamed_addr constant [30 x i8] c"pkey = X509_get0_pubkey(x509)\00", align 1
@.str.35 = private unnamed_addr constant [30 x i8] c"rsa = EVP_PKEY_get1_RSA(pkey)\00", align 1
@.str.36 = private unnamed_addr constant [29 x i8] c"EVP_PKEY_set1_RSA(pkey, rsa)\00", align 1
@.str.37 = private unnamed_addr constant [111 x i8] c"ASN1_item_verify(ASN1_ITEM_rptr(X509_CINF), (X509_ALGOR *)alg, (ASN1_BIT_STRING *)sig, &x509->cert_info, pkey)\00", align 1
@.str.38 = private unnamed_addr constant [99 x i8] c"ASN1_item_verify(ASN1_ITEM_rptr(X509_CINF), (X509_ALGOR *)alg, (ASN1_BIT_STRING *)sig, NULL, pkey)\00", align 1

; Function Attrs: nounwind uwtable
define internal i32 @test_asn1_item_verify() #0 {
  %1 = alloca i32, align 4
  %2 = alloca ptr, align 8
  %3 = alloca ptr, align 8
  %4 = alloca ptr, align 8
  %5 = alloca ptr, align 8
  %6 = alloca ptr, align 8
  %7 = alloca ptr, align 8
  %8 = alloca ptr, align 8
  call void @llvm.lifetime.start.p0(i64 4, ptr %1) #3
  store i32 0, ptr %1, align 4, !tbaa !4
  call void @llvm.lifetime.start.p0(i64 8, ptr %2) #3
  store ptr null, ptr %2, align 8, !tbaa !13
  call void @llvm.lifetime.start.p0(i64 8, ptr %3) #3
  store ptr null, ptr %3, align 8, !tbaa !17
  call void @llvm.lifetime.start.p0(i64 8, ptr %4) #3
  call void @llvm.lifetime.start.p0(i64 8, ptr %5) #3
  store ptr null, ptr %5, align 8, !tbaa !21
  call void @llvm.lifetime.start.p0(i64 8, ptr %6) #3
  store ptr null, ptr %6, align 8, !tbaa !23
  call void @llvm.lifetime.start.p0(i64 8, ptr %7) #3
  call void @llvm.lifetime.start.p0(i64 8, ptr %8) #3
  store ptr null, ptr %8, align 8, !tbaa !25
  %9 = call ptr @test_get_argument(i64 noundef 0)
  store ptr %9, ptr %4, align 8, !tbaa !8
  %10 = call i32 @test_ptr(ptr noundef @.str.14, i32 noundef 137, ptr noundef @.str.30, ptr noundef %9)
  %11 = icmp ne i32 %10, 0
  br i1 %11, label %12, label %27

12:                                               ; preds = %0
  %13 = load ptr, ptr %4, align 8, !tbaa !8
  %14 = call ptr @BIO_new_file(ptr noundef %13, ptr noundef @.str.32)
  store ptr %14, ptr %2, align 8, !tbaa !13
  %15 = call i32 @test_ptr(ptr noundef @.str.14, i32 noundef 138, ptr noundef @.str.31, ptr noundef %14)
  %16 = icmp ne i32 %15, 0
  br i1 %16, label %17, label %27

17:                                               ; preds = %12
  %18 = load ptr, ptr %2, align 8, !tbaa !13
  %19 = call ptr @PEM_read_bio_X509(ptr noundef %18, ptr noundef null, ptr noundef null, ptr noundef null)
  store ptr %19, ptr %3, align 8, !tbaa !17
  %20 = call i32 @test_ptr(ptr noundef @.str.14, i32 noundef 139, ptr noundef @.str.33, ptr noundef %19)
  %21 = icmp ne i32 %20, 0
  br i1 %21, label %22, label %27

22:                                               ; preds = %17
  %23 = load ptr, ptr %3, align 8, !tbaa !17
  %24 = call ptr @X509_get0_pubkey(ptr noundef %23)
  store ptr %24, ptr %7, align 8, !tbaa !11
  %25 = call i32 @test_ptr(ptr noundef @.str.14, i32 noundef 140, ptr noundef @.str.34, ptr noundef %24)
  %26 = icmp ne i32 %25, 0
  br i1 %26, label %28, label %27

27:                                               ; preds = %22, %17, %12, %0
  br label %66

28:                                               ; preds = %22
  %29 = load ptr, ptr %7, align 8, !tbaa !11
  %30 = call ptr @EVP_PKEY_get1_RSA(ptr noundef %29)
  store ptr %30, ptr %8, align 8, !tbaa !25
  %31 = call i32 @test_ptr(ptr noundef @.str.14, i32 noundef 145, ptr noundef @.str.35, ptr noundef %30)
  %32 = icmp ne i32 %31, 0
  br i1 %32, label %34, label %33

33:                                               ; preds = %28
  br label %66

34:                                               ; preds = %28
  %35 = load ptr, ptr %7, align 8, !tbaa !11
  %36 = load ptr, ptr %8, align 8, !tbaa !25
  %37 = call i32 @EVP_PKEY_set1_RSA(ptr noundef %35, ptr noundef %36)
  %38 = call i32 @test_int_gt(ptr noundef @.str.14, i32 noundef 148, ptr noundef @.str.36, ptr noundef @.str.24, i32 noundef %37, i32 noundef 0)
  %39 = icmp ne i32 %38, 0
  br i1 %39, label %41, label %40

40:                                               ; preds = %34
  br label %66

41:                                               ; preds = %34
  %42 = load ptr, ptr %3, align 8, !tbaa !17
  call void @X509_get0_signature(ptr noundef %5, ptr noundef %6, ptr noundef %42)
  %43 = call ptr @X509_CINF_it()
  %44 = load ptr, ptr %6, align 8, !tbaa !23
  %45 = load ptr, ptr %5, align 8, !tbaa !21
  %46 = load ptr, ptr %3, align 8, !tbaa !17
  %47 = getelementptr inbounds nuw %struct.x509_st, ptr %46, i32 0, i32 0
  %48 = load ptr, ptr %7, align 8, !tbaa !11
  %49 = call i32 @ASN1_item_verify(ptr noundef %43, ptr noundef %44, ptr noundef %45, ptr noundef %47, ptr noundef %48)
  %50 = call i32 @test_int_gt(ptr noundef @.str.14, i32 noundef 156, ptr noundef @.str.37, ptr noundef @.str.24, i32 noundef %49, i32 noundef 0)
  %51 = icmp ne i32 %50, 0
  br i1 %51, label %53, label %52

52:                                               ; preds = %41
  br label %66

53:                                               ; preds = %41
  %54 = call i32 @ERR_set_mark()
  %55 = call ptr @X509_CINF_it()
  %56 = load ptr, ptr %6, align 8, !tbaa !23
  %57 = load ptr, ptr %5, align 8, !tbaa !21
  %58 = load ptr, ptr %7, align 8, !tbaa !11
  %59 = call i32 @ASN1_item_verify(ptr noundef %55, ptr noundef %56, ptr noundef %57, ptr noundef null, ptr noundef %58)
  %60 = call i32 @test_int_lt(ptr noundef @.str.14, i32 noundef 162, ptr noundef @.str.38, ptr noundef @.str.24, i32 noundef %59, i32 noundef 0)
  %61 = icmp ne i32 %60, 0
  br i1 %61, label %64, label %62

62:                                               ; preds = %53
  %63 = call i32 @ERR_clear_last_mark()
  br label %66

64:                                               ; preds = %53
  %65 = call i32 @ERR_pop_to_mark()
  store i32 1, ptr %1, align 4, !tbaa !4
  br label %66

66:                                               ; preds = %64, %62, %52, %40, %33, %27
  %67 = load ptr, ptr %8, align 8, !tbaa !25
  call void @RSA_free(ptr noundef %67)
  %68 = load ptr, ptr %3, align 8, !tbaa !17
  call void @X509_free(ptr noundef %68)
  %69 = load ptr, ptr %2, align 8, !tbaa !13
  %70 = call i32 @BIO_free(ptr noundef %69)
  %71 = load i32, ptr %1, align 4, !tbaa !4
  call void @llvm.lifetime.end.p0(i64 8, ptr %8) #3
  call void @llvm.lifetime.end.p0(i64 8, ptr %7) #3
  call void @llvm.lifetime.end.p0(i64 8, ptr %6) #3
  call void @llvm.lifetime.end.p0(i64 8, ptr %5) #3
  call void @llvm.lifetime.end.p0(i64 8, ptr %4) #3
  call void @llvm.lifetime.end.p0(i64 8, ptr %3) #3
  call void @llvm.lifetime.end.p0(i64 8, ptr %2) #3
  call void @llvm.lifetime.end.p0(i64 4, ptr %1) #3
  ret i32 %71
}