; Function Attrs: nounwind uwtable
define internal range(i32 0, 2) i32 @test_asn1_item_verify() #1 {
  %1 = alloca ptr, align 8
  %2 = alloca ptr, align 8
  call void @llvm.lifetime.start.p0(i64 8, ptr nonnull %1) #4
  store ptr null, ptr %1, align 8, !tbaa !15
  call void @llvm.lifetime.start.p0(i64 8, ptr nonnull %2) #4
  store ptr null, ptr %2, align 8, !tbaa !17
  %3 = tail call ptr @test_get_argument(i64 noundef 0) #4
  %4 = tail call i32 @test_ptr(ptr noundef nonnull @.str.14, i32 noundef 137, ptr noundef nonnull @.str.30, ptr noundef %3) #4
  %.not = icmp eq i32 %4, 0
  br i1 %.not, label %37, label %5

5:                                                ; preds = %0
  %6 = tail call ptr @BIO_new_file(ptr noundef %3, ptr noundef nonnull @.str.32) #4
  %7 = tail call i32 @test_ptr(ptr noundef nonnull @.str.14, i32 noundef 138, ptr noundef nonnull @.str.31, ptr noundef %6) #4
  %.not16 = icmp eq i32 %7, 0
  br i1 %.not16, label %37, label %8

8:                                                ; preds = %5
  %9 = tail call ptr @PEM_read_bio_X509(ptr noundef %6, ptr noundef null, ptr noundef null, ptr noundef null) #4
  %10 = tail call i32 @test_ptr(ptr noundef nonnull @.str.14, i32 noundef 139, ptr noundef nonnull @.str.33, ptr noundef %9) #4
  %.not17 = icmp eq i32 %10, 0
  br i1 %.not17, label %37, label %11

11:                                               ; preds = %8
  %12 = tail call ptr @X509_get0_pubkey(ptr noundef %9) #4
  %13 = tail call i32 @test_ptr(ptr noundef nonnull @.str.14, i32 noundef 140, ptr noundef nonnull @.str.34, ptr noundef %12) #4
  %.not18 = icmp eq i32 %13, 0
  br i1 %.not18, label %37, label %14

14:                                               ; preds = %11
  %15 = tail call ptr @EVP_PKEY_get1_RSA(ptr noundef %12) #4
  %16 = tail call i32 @test_ptr(ptr noundef nonnull @.str.14, i32 noundef 145, ptr noundef nonnull @.str.35, ptr noundef %15) #4
  %.not19 = icmp eq i32 %16, 0
  br i1 %.not19, label %37, label %17

17:                                               ; preds = %14
  %18 = tail call i32 @EVP_PKEY_set1_RSA(ptr noundef %12, ptr noundef %15) #4
  %19 = tail call i32 @test_int_gt(ptr noundef nonnull @.str.14, i32 noundef 148, ptr noundef nonnull @.str.36, ptr noundef nonnull @.str.24, i32 noundef %18, i32 noundef 0) #4
  %.not20 = icmp eq i32 %19, 0
  br i1 %.not20, label %37, label %20

20:                                               ; preds = %17
  call void @X509_get0_signature(ptr noundef nonnull %1, ptr noundef nonnull %2, ptr noundef %9) #4
  %21 = call ptr @X509_CINF_it() #4
  %22 = load ptr, ptr %2, align 8, !tbaa !17
  %23 = load ptr, ptr %1, align 8, !tbaa !15
  %24 = call i32 @ASN1_item_verify(ptr noundef %21, ptr noundef %22, ptr noundef %23, ptr noundef %9, ptr noundef %12) #4
  %25 = call i32 @test_int_gt(ptr noundef nonnull @.str.14, i32 noundef 156, ptr noundef nonnull @.str.37, ptr noundef nonnull @.str.24, i32 noundef %24, i32 noundef 0) #4
  %.not21 = icmp eq i32 %25, 0
  br i1 %.not21, label %37, label %26

26:                                               ; preds = %20
  %27 = call i32 @ERR_set_mark() #4
  %28 = call ptr @X509_CINF_it() #4
  %29 = load ptr, ptr %2, align 8, !tbaa !17
  %30 = load ptr, ptr %1, align 8, !tbaa !15
  %31 = call i32 @ASN1_item_verify(ptr noundef %28, ptr noundef %29, ptr noundef %30, ptr noundef null, ptr noundef %12) #4
  %32 = call i32 @test_int_lt(ptr noundef nonnull @.str.14, i32 noundef 162, ptr noundef nonnull @.str.38, ptr noundef nonnull @.str.24, i32 noundef %31, i32 noundef 0) #4
  %.not22 = icmp eq i32 %32, 0
  br i1 %.not22, label %33, label %35

33:                                               ; preds = %26
  %34 = call i32 @ERR_clear_last_mark() #4
  br label %37

35:                                               ; preds = %26
  %36 = call i32 @ERR_pop_to_mark() #4
  br label %37

37:                                               ; preds = %20, %17, %14, %0, %5, %8, %11, %35, %33
  %.015 = phi ptr [ %9, %35 ], [ %9, %33 ], [ %9, %20 ], [ %9, %17 ], [ %9, %14 ], [ %9, %11 ], [ %9, %8 ], [ null, %5 ], [ null, %0 ]
  %.014 = phi ptr [ %6, %35 ], [ %6, %33 ], [ %6, %20 ], [ %6, %17 ], [ %6, %14 ], [ %6, %11 ], [ %6, %8 ], [ %6, %5 ], [ null, %0 ]
  %.013 = phi i32 [ 1, %35 ], [ 0, %33 ], [ 0, %20 ], [ 0, %17 ], [ 0, %14 ], [ 0, %11 ], [ 0, %8 ], [ 0, %5 ], [ 0, %0 ]
  %.0 = phi ptr [ %15, %35 ], [ %15, %33 ], [ %15, %20 ], [ %15, %17 ], [ %15, %14 ], [ null, %11 ], [ null, %8 ], [ null, %5 ], [ null, %0 ]
  call void @RSA_free(ptr noundef %.0) #4
  call void @X509_free(ptr noundef %.015) #4
  %38 = call i32 @BIO_free(ptr noundef %.014) #4
  call void @llvm.lifetime.end.p0(i64 8, ptr nonnull %2) #4
  call void @llvm.lifetime.end.p0(i64 8, ptr nonnull %1) #4
  ret i32 %.013
}